target datalayout = "e-m:e-p270:32:32-p271:32:32-p272:64:64-i64:64-i128:128-f80:128-n8:16:32:64-S128"
target triple = "x86_64-pc-linux-gnu"

%struct.usershape_s = type { %struct._dtlink_s, ptr, i32, i8, i8, ptr, i32, ptr, i32, i32, i32, i32, i32, ptr, i64, ptr }
%struct._dtlink_s = type { ptr, %union.anon }
%union.anon = type { ptr }

@gvusershape_file_access.usershape_files_open_cnt = internal global i32 0, align 4
@.str = private unnamed_addr constant [25 x i8] c"Filename \22%s\22 is unsafe\0A\00", align 1
@.str.1 = private unnamed_addr constant [3 x i8] c"rb\00", align 1
@.str.2 = private unnamed_addr constant [21 x i8] c"%s while opening %s\0A\00", align 1

; Function Attrs: nounwind uwtable
define zeroext i1 @gvusershape_file_access(ptr noundef %0) #0 {
  %2 = alloca i1, align 1
  %3 = alloca ptr, align 8
  %4 = alloca ptr, align 8
  store ptr %0, ptr %3, align 8
  %5 = load ptr, ptr %3, align 8
  %6 = getelementptr inbounds %struct.usershape_s, ptr %5, i32 0, i32 5
  %7 = load ptr, ptr %6, align 8
  %8 = icmp ne ptr %7, null
  br i1 %8, label %9, label %14

9:                                                ; preds = %1
  %10 = load ptr, ptr %3, align 8
  %11 = getelementptr inbounds %struct.usershape_s, ptr %10, i32 0, i32 5
  %12 = load ptr, ptr %11, align 8
  %13 = call i32 @fseek(ptr noundef %12, i64 noundef 0, i32 noundef 0)
  br label %50

14:                                               ; preds = %1
  %15 = load ptr, ptr %3, align 8
  %16 = getelementptr inbounds %struct.usershape_s, ptr %15, i32 0, i32 1
  %17 = load ptr, ptr %16, align 8
  %18 = call ptr @safefile(ptr noundef %17)
  store ptr %18, ptr %4, align 8
  %19 = icmp ne ptr %18, null
  br i1 %19, label %25, label %20

20:                                               ; preds = %14
  %21 = load ptr, ptr %3, align 8
  %22 = getelementptr inbounds %struct.usershape_s, ptr %21, i32 0, i32 1
  %23 = load ptr, ptr %22, align 8
  %24 = call i32 (i32, ptr, ...) @agerr(i32 noundef 0, ptr noundef @.str, ptr noundef %23)
  store i1 false, ptr %2, align 1
  br label %51

25:                                               ; preds = %14
  %26 = load ptr, ptr %4, align 8
  %27 = call noalias ptr @fopen(ptr noundef %26, ptr noundef @.str.1)
  %28 = load ptr, ptr %3, align 8
  %29 = getelementptr inbounds %struct.usershape_s, ptr %28, i32 0, i32 5
  store ptr %27, ptr %29, align 8
  %30 = load ptr, ptr %3, align 8
  %31 = getelementptr inbounds %struct.usershape_s, ptr %30, i32 0, i32 5
  %32 = load ptr, ptr %31, align 8
  %33 = icmp eq ptr %32, null
  br i1 %33, label %34, label %40

34:                                               ; preds = %25
  %35 = call ptr @__errno_location() #12
  %36 = load i32, ptr %35, align 4
  %37 = call ptr @strerror(i32 noundef %36) #13
  %38 = load ptr, ptr %4, align 8
  %39 = call i32 (i32, ptr, ...) @agerr(i32 noundef 0, ptr noundef @.str.2, ptr noundef %37, ptr noundef %38)
  store i1 false, ptr %2, align 1
  br label %51

40:                                               ; preds = %25
  %41 = load i32, ptr @gvusershape_file_access.usershape_files_open_cnt, align 4
  %42 = icmp sge i32 %41, 50
  br i1 %42, label %43, label %46

43:                                               ; preds = %40
  %44 = load ptr, ptr %3, align 8
  %45 = getelementptr inbounds %struct.usershape_s, ptr %44, i32 0, i32 4
  store i8 1, ptr %45, align 1
  br label %49

46:                                               ; preds = %40
  %47 = load i32, ptr @gvusershape_file_access.usershape_files_open_cnt, align 4
  %48 = add nsw i32 %47, 1
  store i32 %48, ptr @gvusershape_file_access.usershape_files_open_cnt, align 4
  br label %49

49:                                               ; preds = %46, %43
  br label %50

50:                                               ; preds = %49, %9
  store i1 true, ptr %2, align 1
  br label %51

51:                                               ; preds = %50, %34, %20
  %52 = load i1, ptr %2, align 1
  ret i1 %52
}