; Function Attrs: nounwind uwtable
define noundef zeroext i1 @gvusershape_file_access(ptr noundef captures(none) %0) local_unnamed_addr #0 {
  %2 = getelementptr inbounds nuw i8, ptr %0, i64 32
  %3 = load ptr, ptr %2, align 8
  %.not = icmp eq ptr %3, null
  br i1 %.not, label %6, label %4

4:                                                ; preds = %1
  %5 = tail call i32 @fseek(ptr noundef nonnull %3, i64 noundef 0, i32 noundef 0)
  br label %28

6:                                                ; preds = %1
  %7 = getelementptr inbounds nuw i8, ptr %0, i64 16
  %8 = load ptr, ptr %7, align 8
  %9 = tail call ptr @safefile(ptr noundef %8) #21
  %.not13 = icmp eq ptr %9, null
  br i1 %.not13, label %10, label %13

10:                                               ; preds = %6
  %11 = load ptr, ptr %7, align 8
  %12 = tail call i32 (i32, ptr, ...) @agerr(i32 noundef 0, ptr noundef nonnull @.str, ptr noundef %11) #21
  br label %28

13:                                               ; preds = %6
  %14 = tail call noalias ptr @fopen(ptr noundef nonnull %9, ptr noundef nonnull @.str.1)
  store ptr %14, ptr %2, align 8
  %15 = icmp eq ptr %14, null
  br i1 %15, label %16, label %21

16:                                               ; preds = %13
  %17 = tail call ptr @__errno_location() #22
  %18 = load i32, ptr %17, align 4
  %19 = tail call ptr @strerror(i32 noundef %18) #21
  %20 = tail call i32 (i32, ptr, ...) @agerr(i32 noundef 0, ptr noundef nonnull @.str.2, ptr noundef %19, ptr noundef nonnull %9) #21
  br label %28

21:                                               ; preds = %13
  %22 = load i32, ptr @gvusershape_file_access.usershape_files_open_cnt, align 4
  %23 = icmp sgt i32 %22, 49
  br i1 %23, label %24, label %26

24:                                               ; preds = %21
  %25 = getelementptr inbounds nuw i8, ptr %0, i64 29
  store i8 1, ptr %25, align 1
  br label %28

26:                                               ; preds = %21
  %27 = add nsw i32 %22, 1
  store i32 %27, ptr @gvusershape_file_access.usershape_files_open_cnt, align 4
  br label %28

28:                                               ; preds = %4, %26, %24, %16, %10
  %.0 = phi i1 [ false, %16 ], [ false, %10 ], [ true, %24 ], [ true, %26 ], [ true, %4 ]
  ret i1 %.0
}